target datalayout = "e-m:e-p270:32:32-p271:32:32-p272:64:64-i64:64-i128:128-f80:128-n8:16:32:64-S128"
target triple = "x86_64-pc-linux-gnu"

%struct.ident_t = type { i32, i32, i32, i32, ptr }
%"class.LightGBM::ObjectiveFunction" = type { ptr }
%"class.LightGBM::CrossEntropy" = type <{ %"class.LightGBM::ObjectiveFunction", i32, [4 x i8], ptr, ptr, i8, [7 x i8] }>

@1 = private unnamed_addr constant %struct.ident_t { i32 0, i32 514, i32 0, i32 22, ptr @0 }, align 8

; Function Attrs: alwaysinline norecurse nounwind uwtable
define internal void @_ZNK8LightGBM12CrossEntropy12GetGradientsEPKdPfS3_.omp_outlined(ptr noalias noundef %0, ptr noalias noundef %1, ptr noundef %2, ptr noundef nonnull align 8 dereferenceable(8) %3, ptr noundef nonnull align 8 dereferenceable(8) %4, ptr noundef nonnull align 8 dereferenceable(8) %5) #16 {
  %7 = alloca ptr, align 8
  %8 = alloca ptr, align 8
  %9 = alloca ptr, align 8
  %10 = alloca ptr, align 8
  %11 = alloca ptr, align 8
  %12 = alloca ptr, align 8
  %13 = alloca i32, align 4
  %14 = alloca i32, align 4
  %15 = alloca i32, align 4
  %16 = alloca i32, align 4
  %17 = alloca i32, align 4
  %18 = alloca i32, align 4
  %19 = alloca i32, align 4
  %20 = alloca i32, align 4
  %21 = alloca i32, align 4
  %22 = alloca double, align 8
  %23 = alloca double, align 8
  store ptr %0, ptr %7, align 8, !tbaa !193
  store ptr %1, ptr %8, align 8, !tbaa !193
  store ptr %2, ptr %9, align 8, !tbaa !147
  store ptr %3, ptr %10, align 8, !tbaa !224
  store ptr %4, ptr %11, align 8, !tbaa !216
  store ptr %5, ptr %12, align 8, !tbaa !216
  %24 = load ptr, ptr %9, align 8, !tbaa !147
  %25 = load ptr, ptr %10, align 8, !tbaa !224
  %26 = load ptr, ptr %11, align 8, !tbaa !216
  %27 = load ptr, ptr %12, align 8, !tbaa !216
  call void @llvm.lifetime.start.p0(i64 4, ptr %13) #3
  call void @llvm.lifetime.start.p0(i64 4, ptr %14) #3
  %28 = getelementptr inbounds nuw %"class.LightGBM::CrossEntropy", ptr %24, i32 0, i32 1
  %29 = load i32, ptr %28, align 8, !tbaa !807
  store i32 %29, ptr %14, align 4, !tbaa !141
  call void @llvm.lifetime.start.p0(i64 4, ptr %15) #3
  %30 = load i32, ptr %14, align 4, !tbaa !141
  %31 = sub nsw i32 %30, 0
  %32 = sdiv i32 %31, 1
  %33 = sub nsw i32 %32, 1
  store i32 %33, ptr %15, align 4, !tbaa !141
  call void @llvm.lifetime.start.p0(i64 4, ptr %16) #3
  store i32 0, ptr %16, align 4, !tbaa !141
  call void @llvm.lifetime.end.p0(i64 4, ptr %16) #3
  %34 = load i32, ptr %14, align 4, !tbaa !141
  %35 = icmp slt i32 0, %34
  br i1 %35, label %36, label %147

36:                                               ; preds = %6
  call void @llvm.lifetime.start.p0(i64 4, ptr %17) #3
  store i32 0, ptr %17, align 4, !tbaa !141
  call void @llvm.lifetime.start.p0(i64 4, ptr %18) #3
  %37 = load i32, ptr %15, align 4, !tbaa !141
  store i32 %37, ptr %18, align 4, !tbaa !141
  call void @llvm.lifetime.start.p0(i64 4, ptr %19) #3
  store i32 1, ptr %19, align 4, !tbaa !141
  call void @llvm.lifetime.start.p0(i64 4, ptr %20) #3
  store i32 0, ptr %20, align 4, !tbaa !141
  call void @llvm.lifetime.start.p0(i64 4, ptr %21) #3
  %38 = load ptr, ptr %7, align 8
  %39 = load i32, ptr %38, align 4, !tbaa !141
  call void @__kmpc_for_static_init_4(ptr @1, i32 %39, i32 34, ptr %20, ptr %17, ptr %18, ptr %19, i32 1, i32 1)
  %40 = load i32, ptr %18, align 4, !tbaa !141
  %41 = load i32, ptr %15, align 4, !tbaa !141
  %42 = icmp sgt i32 %40, %41
  br i1 %42, label %43, label %45

43:                                               ; preds = %36
  %44 = load i32, ptr %15, align 4, !tbaa !141
  br label %47

45:                                               ; preds = %36
  %46 = load i32, ptr %18, align 4, !tbaa !141
  br label %47

47:                                               ; preds = %45, %43
  %48 = phi i32 [ %44, %43 ], [ %46, %45 ]
  store i32 %48, ptr %18, align 4, !tbaa !141
  %49 = load i32, ptr %17, align 4, !tbaa !141
  store i32 %49, ptr %13, align 4, !tbaa !141
  br label %50

50:                                               ; preds = %140, %47
  %51 = load i32, ptr %13, align 4, !tbaa !141
  %52 = load i32, ptr %18, align 4, !tbaa !141
  %53 = icmp sle i32 %51, %52
  br i1 %53, label %55, label %54

54:                                               ; preds = %50
  br label %143

55:                                               ; preds = %50
  %56 = load i32, ptr %13, align 4, !tbaa !141
  %57 = mul nsw i32 %56, 1
  %58 = add nsw i32 0, %57
  store i32 %58, ptr %21, align 4, !tbaa !141
  %59 = load ptr, ptr %25, align 8, !tbaa !191
  %60 = load i32, ptr %21, align 4, !tbaa !141
  %61 = sext i32 %60 to i64
  %62 = getelementptr inbounds double, ptr %59, i64 %61
  %63 = load double, ptr %62, align 8, !tbaa !194
  %64 = fcmp ogt double %63, -3.700000e+01
  br i1 %64, label %65, label %111

65:                                               ; preds = %55
  call void @llvm.lifetime.start.p0(i64 8, ptr %22) #3
  %66 = load ptr, ptr %25, align 8, !tbaa !191
  %67 = load i32, ptr %21, align 4, !tbaa !141
  %68 = sext i32 %67 to i64
  %69 = getelementptr inbounds double, ptr %66, i64 %68
  %70 = load double, ptr %69, align 8, !tbaa !194
  %71 = fneg double %70
  %72 = call double @exp(double noundef %71) #3, !tbaa !141
  store double %72, ptr %22, align 8, !tbaa !194
  %73 = getelementptr inbounds nuw %"class.LightGBM::CrossEntropy", ptr %24, i32 0, i32 3
  %74 = load ptr, ptr %73, align 8, !tbaa !808
  %75 = load i32, ptr %21, align 4, !tbaa !141
  %76 = sext i32 %75 to i64
  %77 = getelementptr inbounds float, ptr %74, i64 %76
  %78 = load float, ptr %77, align 4, !tbaa !210
  %79 = fsub float 1.000000e+00, %78
  %80 = fpext float %79 to double
  %81 = getelementptr inbounds nuw %"class.LightGBM::CrossEntropy", ptr %24, i32 0, i32 3
  %82 = load ptr, ptr %81, align 8, !tbaa !808
  %83 = load i32, ptr %21, align 4, !tbaa !141
  %84 = sext i32 %83 to i64
  %85 = getelementptr inbounds float, ptr %82, i64 %84
  %86 = load float, ptr %85, align 4, !tbaa !210
  %87 = fpext float %86 to double
  %88 = load double, ptr %22, align 8, !tbaa !194
  %89 = fneg double %87
  %90 = call double @llvm.fmuladd.f64(double %89, double %88, double %80)
  %91 = load double, ptr %22, align 8, !tbaa !194
  %92 = fadd double 1.000000e+00, %91
  %93 = fdiv double %90, %92
  %94 = fptrunc double %93 to float
  %95 = load ptr, ptr %26, align 8, !tbaa !192
  %96 = load i32, ptr %21, align 4, !tbaa !141
  %97 = sext i32 %96 to i64
  %98 = getelementptr inbounds float, ptr %95, i64 %97
  store float %94, ptr %98, align 4, !tbaa !210
  %99 = load double, ptr %22, align 8, !tbaa !194
  %100 = load double, ptr %22, align 8, !tbaa !194
  %101 = fadd double 1.000000e+00, %100
  %102 = load double, ptr %22, align 8, !tbaa !194
  %103 = fadd double 1.000000e+00, %102
  %104 = fmul double %101, %103
  %105 = fdiv double %99, %104
  %106 = fptrunc double %105 to float
  %107 = load ptr, ptr %27, align 8, !tbaa !192
  %108 = load i32, ptr %21, align 4, !tbaa !141
  %109 = sext i32 %108 to i64
  %110 = getelementptr inbounds float, ptr %107, i64 %109
  store float %106, ptr %110, align 4, !tbaa !210
  call void @llvm.lifetime.end.p0(i64 8, ptr %22) #3
  br label %138

111:                                              ; preds = %55
  call void @llvm.lifetime.start.p0(i64 8, ptr %23) #3
  %112 = load ptr, ptr %25, align 8, !tbaa !191
  %113 = load i32, ptr %21, align 4, !tbaa !141
  %114 = sext i32 %113 to i64
  %115 = getelementptr inbounds double, ptr %112, i64 %114
  %116 = load double, ptr %115, align 8, !tbaa !194
  %117 = call double @exp(double noundef %116) #3, !tbaa !141
  store double %117, ptr %23, align 8, !tbaa !194
  %118 = load double, ptr %23, align 8, !tbaa !194
  %119 = getelementptr inbounds nuw %"class.LightGBM::CrossEntropy", ptr %24, i32 0, i32 3
  %120 = load ptr, ptr %119, align 8, !tbaa !808
  %121 = load i32, ptr %21, align 4, !tbaa !141
  %122 = sext i32 %121 to i64
  %123 = getelementptr inbounds float, ptr %120, i64 %122
  %124 = load float, ptr %123, align 4, !tbaa !210
  %125 = fpext float %124 to double
  %126 = fsub double %118, %125
  %127 = fptrunc double %126 to float
  %128 = load ptr, ptr %26, align 8, !tbaa !192
  %129 = load i32, ptr %21, align 4, !tbaa !141
  %130 = sext i32 %129 to i64
  %131 = getelementptr inbounds float, ptr %128, i64 %130
  store float %127, ptr %131, align 4, !tbaa !210
  %132 = load double, ptr %23, align 8, !tbaa !194
  %133 = fptrunc double %132 to float
  %134 = load ptr, ptr %27, align 8, !tbaa !192
  %135 = load i32, ptr %21, align 4, !tbaa !141
  %136 = sext i32 %135 to i64
  %137 = getelementptr inbounds float, ptr %134, i64 %136
  store float %133, ptr %137, align 4, !tbaa !210
  call void @llvm.lifetime.end.p0(i64 8, ptr %23) #3
  br label %138

138:                                              ; preds = %111, %65
  br label %139

139:                                              ; preds = %138
  br label %140

140:                                              ; preds = %139
  %141 = load i32, ptr %13, align 4, !tbaa !141
  %142 = add nsw i32 %141, 1
  store i32 %142, ptr %13, align 4, !tbaa !141
  br label %50

143:                                              ; preds = %54
  br label %144

144:                                              ; preds = %143
  %145 = load ptr, ptr %7, align 8
  %146 = load i32, ptr %145, align 4, !tbaa !141
  call void @__kmpc_for_static_fini(ptr @1, i32 %146)
  call void @llvm.lifetime.end.p0(i64 4, ptr %21) #3
  call void @llvm.lifetime.end.p0(i64 4, ptr %20) #3
  call void @llvm.lifetime.end.p0(i64 4, ptr %19) #3
  call void @llvm.lifetime.end.p0(i64 4, ptr %18) #3
  call void @llvm.lifetime.end.p0(i64 4, ptr %17) #3
  br label %147

147:                                              ; preds = %144, %6
  call void @llvm.lifetime.end.p0(i64 4, ptr %15) #3
  call void @llvm.lifetime.end.p0(i64 4, ptr %14) #3
  call void @llvm.lifetime.end.p0(i64 4, ptr %13) #3
  ret void
}