; Function Attrs: alwaysinline norecurse nounwind uwtable
define internal void @_ZNK8LightGBM12CrossEntropy12GetGradientsEPKdPfS3_.omp_outlined(ptr noalias noundef readonly captures(none) %0, ptr noalias readnone captures(none) %1, ptr noundef readonly captures(none) %2, ptr noundef nonnull readonly align 8 captures(none) dereferenceable(8) %3, ptr noundef nonnull readonly align 8 captures(none) dereferenceable(8) %4, ptr noundef nonnull readonly align 8 captures(none) dereferenceable(8) %5) #14 {
  %7 = alloca i32, align 4
  %8 = alloca i32, align 4
  %9 = alloca i32, align 4
  %10 = alloca i32, align 4
  %11 = getelementptr inbounds nuw i8, ptr %2, i64 8
  %12 = load i32, ptr %11, align 8, !tbaa !515
  %13 = icmp sgt i32 %12, 0
  br i1 %13, label %14, label %56

14:                                               ; preds = %6
  %15 = add nsw i32 %12, -1
  call void @llvm.lifetime.start.p0(i64 4, ptr nonnull %7) #15
  store i32 0, ptr %7, align 4, !tbaa !127
  call void @llvm.lifetime.start.p0(i64 4, ptr nonnull %8) #15
  store i32 %15, ptr %8, align 4, !tbaa !127
  call void @llvm.lifetime.start.p0(i64 4, ptr nonnull %9) #15
  store i32 1, ptr %9, align 4, !tbaa !127
  call void @llvm.lifetime.start.p0(i64 4, ptr nonnull %10) #15
  store i32 0, ptr %10, align 4, !tbaa !127
  %16 = load i32, ptr %0, align 4, !tbaa !127
  call void @__kmpc_for_static_init_4(ptr nonnull @1, i32 %16, i32 34, ptr nonnull %10, ptr nonnull %7, ptr nonnull %8, ptr nonnull %9, i32 1, i32 1)
  %17 = load i32, ptr %8, align 4, !tbaa !127
  %18 = call i32 @llvm.smin.i32(i32 %17, i32 %15)
  store i32 %18, ptr %8, align 4, !tbaa !127
  %19 = load i32, ptr %7, align 4, !tbaa !127
  %.not31 = icmp sgt i32 %19, %18
  br i1 %.not31, label %._crit_edge, label %.lr.ph

.lr.ph:                                           ; preds = %14
  %20 = load ptr, ptr %3, align 8, !tbaa !152
  %21 = getelementptr inbounds nuw i8, ptr %2, i64 16
  %22 = load ptr, ptr %4, align 8
  %23 = load ptr, ptr %5, align 8
  %24 = sext i32 %19 to i64
  br label %25

25:                                               ; preds = %.lr.ph, %51
  %indvars.iv = phi i64 [ %24, %.lr.ph ], [ %indvars.iv.next, %51 ]
  %26 = getelementptr inbounds double, ptr %20, i64 %indvars.iv
  %27 = load double, ptr %26, align 8, !tbaa !153
  %28 = fcmp ogt double %27, -3.700000e+01
  br i1 %28, label %29, label %44

29:                                               ; preds = %25
  %30 = fneg double %27
  %31 = call double @exp(double noundef %30) #15, !tbaa !127
  %32 = load ptr, ptr %21, align 8, !tbaa !516
  %33 = getelementptr inbounds float, ptr %32, i64 %indvars.iv
  %34 = load float, ptr %33, align 4, !tbaa !175
  %35 = fsub float 1.000000e+00, %34
  %36 = fpext float %35 to double
  %37 = fpext float %34 to double
  %38 = fneg double %37
  %39 = call double @llvm.fmuladd.f64(double %38, double %31, double %36)
  %40 = fadd double %31, 1.000000e+00
  %41 = fdiv double %39, %40
  %42 = fmul double %40, %40
  %43 = fdiv double %31, %42
  br label %51

44:                                               ; preds = %25
  %45 = call double @exp(double noundef %27) #15, !tbaa !127
  %46 = load ptr, ptr %21, align 8, !tbaa !516
  %47 = getelementptr inbounds float, ptr %46, i64 %indvars.iv
  %48 = load float, ptr %47, align 4, !tbaa !175
  %49 = fpext float %48 to double
  %50 = fsub double %45, %49
  br label %51

51:                                               ; preds = %44, %29
  %.sink34.in = phi double [ %41, %29 ], [ %50, %44 ]
  %.sink.in = phi double [ %43, %29 ], [ %45, %44 ]
  %.sink = fptrunc double %.sink.in to float
  %.sink34 = fptrunc double %.sink34.in to float
  %52 = getelementptr inbounds float, ptr %22, i64 %indvars.iv
  store float %.sink34, ptr %52, align 4, !tbaa !175
  %53 = getelementptr inbounds float, ptr %23, i64 %indvars.iv
  store float %.sink, ptr %53, align 4, !tbaa !175
  %indvars.iv.next = add nsw i64 %indvars.iv, 1
  %54 = load i32, ptr %8, align 4, !tbaa !127
  %55 = sext i32 %54 to i64
  %.not.not = icmp slt i64 %indvars.iv, %55
  br i1 %.not.not, label %25, label %._crit_edge

._crit_edge:                                      ; preds = %51, %14
  call void @__kmpc_for_static_fini(ptr nonnull @1, i32 %16)
  call void @llvm.lifetime.end.p0(i64 4, ptr nonnull %10) #15
  call void @llvm.lifetime.end.p0(i64 4, ptr nonnull %9) #15
  call void @llvm.lifetime.end.p0(i64 4, ptr nonnull %8) #15
  call void @llvm.lifetime.end.p0(i64 4, ptr nonnull %7) #15
  br label %56

56:                                               ; preds = %._crit_edge, %6
  ret void
}